target datalayout = "e-m:e-p270:32:32-p271:32:32-p272:64:64-i64:64-i128:128-f80:128-n8:16:32:64-S128"
target triple = "x86_64-pc-linux-gnu"

%struct.decrypt_data = type { i8, %struct._address, i32, i32, i32, i32, i64, i64, i32, i32, i32, ptr, i32, ptr, i32, [256 x i8], i32, ptr, i32 }
%struct._address = type { i32, i32, ptr, ptr }
%struct._packet_info = type { ptr, ptr, i32, i32, %struct.nstime_t, %struct.nstime_t, %struct.nstime_t, i8, ptr, ptr, ptr, ptr, %struct._address, %struct._address, %struct._address, %struct._address, %struct._address, %struct._address, i32, ptr, i8, [3 x i8], %struct.anon.1, i32, i32, i32, i32, ptr, i8, ptr, ptr, i16, i16, i32, i32, i16, i32, i32, ptr, ptr, ptr, i8, i8, i16, i16, i16, i32, i16, i16, ptr, ptr, ptr, ptr, ptr, i32, i32 }
%struct.nstime_t = type { i64, i32 }
%struct.anon.1 = type { i8, [3 x i8] }

@proto_isakmp = internal global i32 0, align 4
@.str.1683 = private unnamed_addr constant [14 x i8] c"Decrypted IKE\00", align 1

; Function Attrs: null_pointer_is_valid sspstrong uwtable
define internal ptr @decrypt_payload(ptr noundef %0, ptr noundef %1, ptr noundef %2, i32 noundef %3, ptr noundef %4) #0 {
  %6 = alloca ptr, align 8
  %7 = alloca ptr, align 8
  %8 = alloca ptr, align 8
  %9 = alloca ptr, align 8
  %10 = alloca i32, align 4
  %11 = alloca ptr, align 8
  %12 = alloca ptr, align 8
  %13 = alloca ptr, align 8
  %14 = alloca ptr, align 8
  %15 = alloca ptr, align 8
  %16 = alloca i8, align 1
  %17 = alloca i32, align 4
  store ptr %0, ptr %7, align 8
  store ptr %1, ptr %8, align 8
  store ptr %2, ptr %9, align 8
  store i32 %3, ptr %10, align 4
  store ptr %4, ptr %11, align 8
  call void @llvm.lifetime.start.p0(i64 8, ptr %12) #16
  call void @llvm.lifetime.start.p0(i64 8, ptr %13) #16
  call void @llvm.lifetime.start.p0(i64 8, ptr %14) #16
  call void @llvm.lifetime.start.p0(i64 8, ptr %15) #16
  call void @llvm.lifetime.start.p0(i64 1, ptr %16) #16
  %18 = load i32, ptr %10, align 4
  %19 = zext i32 %18 to i64
  %20 = load ptr, ptr %11, align 8
  %21 = getelementptr inbounds nuw %struct.decrypt_data, ptr %20, i32 0, i32 7
  %22 = load i64, ptr %21, align 8
  %23 = icmp ult i64 %19, %22
  br i1 %23, label %24, label %25

24:                                               ; preds = %5
  store ptr null, ptr %6, align 8
  store i32 1, ptr %17, align 4
  br label %91

25:                                               ; preds = %5
  %26 = call ptr @wmem_file_scope()
  %27 = load ptr, ptr %8, align 8
  %28 = load i32, ptr @proto_isakmp, align 4
  %29 = call ptr @p_get_proto_data(ptr noundef %26, ptr noundef %27, i32 noundef %28, i32 noundef 1)
  store ptr %29, ptr %15, align 8
  %30 = load ptr, ptr %15, align 8
  %31 = icmp ne ptr %30, null
  br i1 %31, label %33, label %32

32:                                               ; preds = %25
  store ptr null, ptr %6, align 8
  store i32 1, ptr %17, align 4
  br label %91

33:                                               ; preds = %25
  %34 = load ptr, ptr %11, align 8
  %35 = getelementptr inbounds nuw %struct.decrypt_data, ptr %34, i32 0, i32 5
  %36 = load i32, ptr %35, align 4
  %37 = call i32 @gcry_cipher_open(ptr noundef %13, i32 noundef %36, i32 noundef 3, i32 noundef 0)
  %38 = icmp ne i32 %37, 0
  br i1 %38, label %39, label %40

39:                                               ; preds = %33
  store ptr null, ptr %6, align 8
  store i32 1, ptr %17, align 4
  br label %91

40:                                               ; preds = %33
  %41 = load ptr, ptr %8, align 8
  %42 = getelementptr inbounds nuw %struct._packet_info, ptr %41, i32 0, i32 51
  %43 = load ptr, ptr %42, align 8
  %44 = load i32, ptr %10, align 4
  %45 = zext i32 %44 to i64
  %46 = call noalias ptr @wmem_alloc(ptr noundef %43, i64 noundef %45) #17
  store ptr %46, ptr %12, align 8
  %47 = load ptr, ptr %13, align 8
  %48 = load ptr, ptr %15, align 8
  %49 = load ptr, ptr %11, align 8
  %50 = getelementptr inbounds nuw %struct.decrypt_data, ptr %49, i32 0, i32 7
  %51 = load i64, ptr %50, align 8
  %52 = call i32 @gcry_cipher_setiv(ptr noundef %47, ptr noundef %48, i64 noundef %51)
  %53 = icmp ne i32 %52, 0
  br i1 %53, label %75, label %54

54:                                               ; preds = %40
  %55 = load ptr, ptr %13, align 8
  %56 = load ptr, ptr %11, align 8
  %57 = getelementptr inbounds nuw %struct.decrypt_data, ptr %56, i32 0, i32 15
  %58 = getelementptr inbounds [256 x i8], ptr %57, i64 0, i64 0
  %59 = load ptr, ptr %11, align 8
  %60 = getelementptr inbounds nuw %struct.decrypt_data, ptr %59, i32 0, i32 16
  %61 = load i32, ptr %60, align 4
  %62 = zext i32 %61 to i64
  %63 = call i32 @gcry_cipher_setkey(ptr noundef %55, ptr noundef %58, i64 noundef %62)
  %64 = icmp ne i32 %63, 0
  br i1 %64, label %75, label %65

65:                                               ; preds = %54
  %66 = load ptr, ptr %13, align 8
  %67 = load ptr, ptr %12, align 8
  %68 = load i32, ptr %10, align 4
  %69 = zext i32 %68 to i64
  %70 = load ptr, ptr %9, align 8
  %71 = load i32, ptr %10, align 4
  %72 = zext i32 %71 to i64
  %73 = call i32 @gcry_cipher_decrypt(ptr noundef %66, ptr noundef %67, i64 noundef %69, ptr noundef %70, i64 noundef %72)
  %74 = icmp ne i32 %73, 0
  br label %75

75:                                               ; preds = %65, %54, %40
  %76 = phi i1 [ true, %54 ], [ true, %40 ], [ %74, %65 ]
  %77 = zext i1 %76 to i8
  store i8 %77, ptr %16, align 1
  %78 = load ptr, ptr %13, align 8
  call void @gcry_cipher_close(ptr noundef %78)
  %79 = load i8, ptr %16, align 1, !range !6, !noundef !7
  %80 = trunc i8 %79 to i1
  br i1 %80, label %81, label %82

81:                                               ; preds = %75
  store ptr null, ptr %6, align 8
  store i32 1, ptr %17, align 4
  br label %91

82:                                               ; preds = %75
  %83 = load ptr, ptr %7, align 8
  %84 = load ptr, ptr %12, align 8
  %85 = load i32, ptr %10, align 4
  %86 = load i32, ptr %10, align 4
  %87 = call ptr @tvb_new_child_real_data(ptr noundef %83, ptr noundef %84, i32 noundef %85, i32 noundef %86)
  store ptr %87, ptr %14, align 8
  %88 = load ptr, ptr %8, align 8
  %89 = load ptr, ptr %14, align 8
  call void @add_new_data_source(ptr noundef %88, ptr noundef %89, ptr noundef @.str.1683)
  %90 = load ptr, ptr %14, align 8
  store ptr %90, ptr %6, align 8
  store i32 1, ptr %17, align 4
  br label %91

91:                                               ; preds = %82, %81, %39, %32, %24
  call void @llvm.lifetime.end.p0(i64 1, ptr %16) #16
  call void @llvm.lifetime.end.p0(i64 8, ptr %15) #16
  call void @llvm.lifetime.end.p0(i64 8, ptr %14) #16
  call void @llvm.lifetime.end.p0(i64 8, ptr %13) #16
  call void @llvm.lifetime.end.p0(i64 8, ptr %12) #16
  %92 = load ptr, ptr %6, align 8
  ret ptr %92
}