; Function Attrs: null_pointer_is_valid sspstrong uwtable
define internal fastcc noundef ptr @decrypt_payload(ptr noundef %0, ptr noundef %1, ptr noundef %2, i32 noundef range(i32 1, -2147483648) %3, ptr noundef %4) unnamed_addr #0 {
  %6 = alloca ptr, align 8
  call void @llvm.lifetime.start.p0(i64 8, ptr nonnull %6) #20
  %7 = zext nneg i32 %3 to i64
  %8 = getelementptr inbounds nuw i8, ptr %4, i64 56
  %9 = load i64, ptr %8, align 8
  %10 = icmp ugt i64 %9, %7
  br i1 %10, label %40, label %11

11:                                               ; preds = %5
  %12 = tail call ptr @wmem_file_scope()
  %13 = load i32, ptr @proto_isakmp, align 4
  %14 = tail call ptr @p_get_proto_data(ptr noundef %12, ptr noundef %1, i32 noundef %13, i32 noundef 1)
  %.not = icmp eq ptr %14, null
  br i1 %.not, label %40, label %15

15:                                               ; preds = %11
  %16 = getelementptr inbounds nuw i8, ptr %4, i64 44
  %17 = load i32, ptr %16, align 4
  %18 = call i32 @gcry_cipher_open(ptr noundef nonnull %6, i32 noundef %17, i32 noundef 3, i32 noundef 0)
  %.not25 = icmp eq i32 %18, 0
  br i1 %.not25, label %19, label %40

19:                                               ; preds = %15
  %20 = getelementptr inbounds nuw i8, ptr %1, i64 408
  %21 = load ptr, ptr %20, align 8
  %22 = call noalias ptr @wmem_alloc(ptr noundef %21, i64 noundef %7) #22
  %23 = load ptr, ptr %6, align 8
  %24 = load i64, ptr %8, align 8
  %25 = call i32 @gcry_cipher_setiv(ptr noundef %23, ptr noundef nonnull %14, i64 noundef %24)
  %.not26 = icmp eq i32 %25, 0
  br i1 %.not26, label %26, label %.critedge

26:                                               ; preds = %19
  %27 = load ptr, ptr %6, align 8
  %28 = getelementptr inbounds nuw i8, ptr %4, i64 108
  %29 = getelementptr inbounds nuw i8, ptr %4, i64 364
  %30 = load i32, ptr %29, align 4
  %31 = zext i32 %30 to i64
  %32 = call i32 @gcry_cipher_setkey(ptr noundef %27, ptr noundef nonnull %28, i64 noundef %31)
  %.not27 = icmp eq i32 %32, 0
  br i1 %.not27, label %33, label %.critedge

33:                                               ; preds = %26
  %34 = load ptr, ptr %6, align 8
  %35 = call i32 @gcry_cipher_decrypt(ptr noundef %34, ptr noundef %22, i64 noundef %7, ptr noundef %2, i64 noundef %7)
  %.not28 = icmp eq i32 %35, 0
  %36 = load ptr, ptr %6, align 8
  call void @gcry_cipher_close(ptr noundef %36)
  br i1 %.not28, label %38, label %40

.critedge:                                        ; preds = %19, %26
  %37 = load ptr, ptr %6, align 8
  call void @gcry_cipher_close(ptr noundef %37)
  br label %40

38:                                               ; preds = %33
  %39 = call ptr @tvb_new_child_real_data(ptr noundef %0, ptr noundef %22, i32 noundef %3, i32 noundef %3)
  call void @add_new_data_source(ptr noundef %1, ptr noundef %39, ptr noundef nonnull @.str.1683)
  br label %40

40:                                               ; preds = %33, %.critedge, %15, %11, %5, %38
  %.0 = phi ptr [ %39, %38 ], [ null, %5 ], [ null, %11 ], [ null, %15 ], [ null, %.critedge ], [ null, %33 ]
  call void @llvm.lifetime.end.p0(i64 8, ptr nonnull %6) #20
  ret ptr %.0
}